
program.debug.elf:     file format elf32-littleriscv


Disassembly of section .text:

00000000 <crt>:
   0:	00000013          	addi	x0,x0,0
   4:	00000097          	auipc	x1,0x0
   8:	08c08093          	addi	x1,x1,140 # 90 <exit>
   c:	00010117          	auipc	x2,0x10
  10:	ff410113          	addi	x2,x2,-12 # 10000 <_sp>
  14:	00010413          	addi	x8,x2,0
  18:	00001197          	auipc	x3,0x1
  1c:	aa818193          	addi	x3,x3,-1368 # ac0 <__global_pointer$>
  20:	00000213          	addi	x4,x0,0
  24:	00000293          	addi	x5,x0,0
  28:	00000313          	addi	x6,x0,0
  2c:	00000393          	addi	x7,x0,0
  30:	00000493          	addi	x9,x0,0
  34:	00000513          	addi	x10,x0,0
  38:	00000593          	addi	x11,x0,0
  3c:	00000613          	addi	x12,x0,0
  40:	00000693          	addi	x13,x0,0
  44:	00000713          	addi	x14,x0,0
  48:	00000793          	addi	x15,x0,0
  4c:	00000813          	addi	x16,x0,0
  50:	00000893          	addi	x17,x0,0
  54:	00000913          	addi	x18,x0,0
  58:	00000993          	addi	x19,x0,0
  5c:	00000a13          	addi	x20,x0,0
  60:	00000a93          	addi	x21,x0,0
  64:	00000b13          	addi	x22,x0,0
  68:	00000b93          	addi	x23,x0,0
  6c:	00000c13          	addi	x24,x0,0
  70:	00000c93          	addi	x25,x0,0
  74:	00000d13          	addi	x26,x0,0
  78:	00000d93          	addi	x27,x0,0
  7c:	00000e13          	addi	x28,x0,0
  80:	00000e93          	addi	x29,x0,0
  84:	00000f13          	addi	x30,x0,0
  88:	00000f93          	addi	x31,x0,0
  8c:	0d40006f          	jal	x0,160 <main>

00000090 <exit>:
  90:	00010117          	auipc	x2,0x10
  94:	f7010113          	addi	x2,x2,-144 # 10000 <_sp>
  98:	fea12c23          	sw	x10,-8(x2)
  9c:	00000013          	addi	x0,x0,0
  a0:	10500073          	wfi

000000a4 <kernel>:
  a4:	00000e37          	lui	x28,0x0
  a8:	2e4e2783          	lw	x15,740(x28) # 2e4 <n>
  ac:	08f05263          	bge	x0,x15,130 <kernel+0x8c>
  b0:	00000893          	addi	x17,x0,0
  b4:	00000813          	addi	x16,x0,0
  b8:	0005a303          	lw	x6,0(x11)
  bc:	00052783          	lw	x15,0(x10)
  c0:	026787b3          	mul	x15,x15,x6
  c4:	00f62023          	sw	x15,0(x12)
  c8:	00f888b3          	add	x17,x17,x15
  cc:	0045a303          	lw	x6,4(x11)
  d0:	00452783          	lw	x15,4(x10)
  d4:	026787b3          	mul	x15,x15,x6
  d8:	00f62223          	sw	x15,4(x12)
  dc:	00f90933          	add	x18,x18,x15
  e0:	0085a303          	lw	x6,8(x11)
  e4:	00852783          	lw	x15,8(x10)
  e8:	026787b3          	mul	x15,x15,x6
  ec:	00f62423          	sw	x15,8(x12)
  f0:	00f989b3          	add	x19,x19,x15
  f4:	00c5a303          	lw	x6,12(x11)
  f8:	00c52783          	lw	x15,12(x10)
  fc:	01060613          	addi	x12,x12,16
 100:	00480813          	addi	x16,x16,4
 104:	026787b3          	mul	x15,x15,x6
 108:	01050513          	addi	x10,x10,16
 10c:	01058593          	addi	x11,x11,16
 110:	fef62e23          	sw	x15,-4(x12)
 114:	2e4e2303          	lw	x6,740(x28)
 118:	00fa0a33          	add	x20,x20,x15
 11c:	f8684ee3          	blt	x16,x6,b8 <kernel+0x14>
 120:	01288933          	add	x18,x17,x18
 124:	014989b3          	add	x19,x19,x20
 128:	013908b3          	add	x17,x18,x19
 12c:	011686b3          	add	x13,x13,x17
 130:	00d72023          	sw	x13,0(x14)
 134:	00008067          	jalr	x0,0(x1)

00000138 <myRand>:
 138:	000006b7          	lui	x13,0x0
 13c:	2e06a783          	lw	x15,736(x13) # 2e0 <seed>
 140:	00004737          	lui	x14,0x4
 144:	1a770713          	addi	x14,x14,423 # 41a7 <__global_pointer$+0x36e7>
 148:	02e787b3          	mul	x15,x15,x14
 14c:	80000737          	lui	x14,0x80000
 150:	fff74713          	xori	x14,x14,-1
 154:	02e7e7b3          	rem	x15,x15,x14
 158:	2ef6a023          	sw	x15,736(x13)
 15c:	00008067          	jalr	x0,0(x1)

00000160 <main>:
 160:	fd010113          	addi	x2,x2,-48
 164:	02112623          	sw	x1,44(x2)
 168:	02812423          	sw	x8,40(x2)
 16c:	02912223          	sw	x9,36(x2)
 170:	03212023          	sw	x18,32(x2)
 174:	01312e23          	sw	x19,28(x2)
 178:	01412c23          	sw	x20,24(x2)
 17c:	01512a23          	sw	x21,20(x2)
 180:	01612823          	sw	x22,16(x2)
 184:	01712623          	sw	x23,12(x2)
 188:	01812423          	sw	x24,8(x2)
 18c:	01912223          	sw	x25,4(x2)
 190:	03010413          	addi	x8,x2,48
 194:	000007b7          	lui	x15,0x0
 198:	2e47a703          	lw	x14,740(x15) # 2e4 <n>
 19c:	00271793          	slli	x15,x14,0x2
 1a0:	00f78793          	addi	x15,x15,15
 1a4:	ff07f793          	andi	x15,x15,-16
 1a8:	40f10133          	sub	x2,x2,x15
 1ac:	00010b93          	addi	x23,x2,0
 1b0:	40f10133          	sub	x2,x2,x15
 1b4:	00010c13          	addi	x24,x2,0
 1b8:	40f10133          	sub	x2,x2,x15
 1bc:	00010c93          	addi	x25,x2,0
 1c0:	04e05e63          	bge	x0,x14,21c <main+0xbc>
 1c4:	000b8a13          	addi	x20,x23,0
 1c8:	000c0993          	addi	x19,x24,0
 1cc:	000c8913          	addi	x18,x25,0
 1d0:	00000493          	addi	x9,x0,0
 1d4:	00010ab7          	lui	x21,0x10
 1d8:	fffa8a93          	addi	x21,x21,-1 # ffff <__global_pointer$+0xf53f>
 1dc:	00000b37          	lui	x22,0x0
 1e0:	00000097          	auipc	x1,0x0
 1e4:	f58080e7          	jalr	x1,-168(x1) # 138 <myRand>
 1e8:	01557533          	and	x10,x10,x21
 1ec:	00aa2023          	sw	x10,0(x20)
 1f0:	00000097          	auipc	x1,0x0
 1f4:	f48080e7          	jalr	x1,-184(x1) # 138 <myRand>
 1f8:	01557533          	and	x10,x10,x21
 1fc:	00a9a023          	sw	x10,0(x19)
 200:	00092023          	sw	x0,0(x18)
 204:	00148493          	addi	x9,x9,1
 208:	004a0a13          	addi	x20,x20,4
 20c:	00498993          	addi	x19,x19,4
 210:	00490913          	addi	x18,x18,4
 214:	2e4b2783          	lw	x15,740(x22) # 2e4 <n>
 218:	fcf4c4e3          	blt	x9,x15,1e0 <main+0x80>
 21c:	00000097          	auipc	x1,0x0
 220:	f1c080e7          	jalr	x1,-228(x1) # 138 <myRand>
 224:	00050693          	addi	x13,x10,0
 228:	000004b7          	lui	x9,0x0
 22c:	30048713          	addi	x14,x9,768 # 300 <out>
 230:	000c8613          	addi	x12,x25,0
 234:	000c0593          	addi	x11,x24,0
 238:	000b8513          	addi	x10,x23,0
 23c:	00000097          	auipc	x1,0x0
 240:	e68080e7          	jalr	x1,-408(x1) # a4 <kernel>
 244:	3004a503          	lw	x10,768(x9)
 248:	00153513          	sltiu	x10,x10,1
 24c:	fd040113          	addi	x2,x8,-48
 250:	02c12083          	lw	x1,44(x2)
 254:	02812403          	lw	x8,40(x2)
 258:	02412483          	lw	x9,36(x2)
 25c:	02012903          	lw	x18,32(x2)
 260:	01c12983          	lw	x19,28(x2)
 264:	01812a03          	lw	x20,24(x2)
 268:	01412a83          	lw	x21,20(x2)
 26c:	01012b03          	lw	x22,16(x2)
 270:	00c12b83          	lw	x23,12(x2)
 274:	00812c03          	lw	x24,8(x2)
 278:	00412c83          	lw	x25,4(x2)
 27c:	03010113          	addi	x2,x2,48
 280:	00008067          	jalr	x0,0(x1)
 284:	00000013          	addi	x0,x0,0
 288:	00000013          	addi	x0,x0,0
 28c:	00000013          	addi	x0,x0,0
	...
